target datalayout = "e-m:e-p270:32:32-p271:32:32-p272:64:64-i64:64-i128:128-f80:128-n8:16:32:64-S128"
target triple = "x86_64-pc-linux-gnu"

; Function Attrs: nounwind uwtable
define internal i32 @sort_comp(ptr noundef %0, i32 noundef %1, i32 noundef %2) #0 {
  %4 = alloca i32, align 4
  %5 = alloca ptr, align 8
  %6 = alloca i32, align 4
  %7 = alloca i32, align 4
  %8 = alloca i32, align 4
  store ptr %0, ptr %5, align 8, !tbaa !4
  store i32 %1, ptr %6, align 4, !tbaa !15
  store i32 %2, ptr %7, align 4, !tbaa !15
  %9 = load ptr, ptr %5, align 8, !tbaa !4
  %10 = call i32 @lua_type(ptr noundef %9, i32 noundef 2)
  %11 = icmp eq i32 %10, 0
  br i1 %11, label %12, label %17

12:                                               ; preds = %3
  %13 = load ptr, ptr %5, align 8, !tbaa !4
  %14 = load i32, ptr %6, align 4, !tbaa !15
  %15 = load i32, ptr %7, align 4, !tbaa !15
  %16 = call i32 @lua_compare(ptr noundef %13, i32 noundef %14, i32 noundef %15, i32 noundef 1)
  store i32 %16, ptr %4, align 4
  br label %30

17:                                               ; preds = %3
  call void @llvm.lifetime.start.p0(i64 4, ptr %8) #4
  %18 = load ptr, ptr %5, align 8, !tbaa !4
  call void @lua_pushvalue(ptr noundef %18, i32 noundef 2)
  %19 = load ptr, ptr %5, align 8, !tbaa !4
  %20 = load i32, ptr %6, align 4, !tbaa !15
  %21 = sub nsw i32 %20, 1
  call void @lua_pushvalue(ptr noundef %19, i32 noundef %21)
  %22 = load ptr, ptr %5, align 8, !tbaa !4
  %23 = load i32, ptr %7, align 4, !tbaa !15
  %24 = sub nsw i32 %23, 2
  call void @lua_pushvalue(ptr noundef %22, i32 noundef %24)
  %25 = load ptr, ptr %5, align 8, !tbaa !4
  call void @lua_callk(ptr noundef %25, i32 noundef 2, i32 noundef 1, i64 noundef 0, ptr noundef null)
  %26 = load ptr, ptr %5, align 8, !tbaa !4
  %27 = call i32 @lua_toboolean(ptr noundef %26, i32 noundef -1)
  store i32 %27, ptr %8, align 4, !tbaa !15
  %28 = load ptr, ptr %5, align 8, !tbaa !4
  call void @lua_settop(ptr noundef %28, i32 noundef -2)
  %29 = load i32, ptr %8, align 4, !tbaa !15
  store i32 %29, ptr %4, align 4
  call void @llvm.lifetime.end.p0(i64 4, ptr %8) #4
  br label %30

30:                                               ; preds = %17, %12
  %31 = load i32, ptr %4, align 4
  ret i32 %31
}