; Function Attrs: nounwind uwtable
define internal fastcc i32 @sort_comp(ptr noundef %0, i32 noundef range(i32 -3, 0) %1, i32 noundef range(i32 -2, 0) %2) unnamed_addr #0 {
  %4 = tail call i32 @lua_type(ptr noundef %0, i32 noundef 2) #3
  %5 = icmp eq i32 %4, 0
  br i1 %5, label %6, label %8

6:                                                ; preds = %3
  %7 = tail call i32 @lua_compare(ptr noundef %0, i32 noundef %1, i32 noundef %2, i32 noundef 1) #3
  br label %12

8:                                                ; preds = %3
  tail call void @lua_pushvalue(ptr noundef %0, i32 noundef 2) #3
  %9 = add nsw i32 %1, -1
  tail call void @lua_pushvalue(ptr noundef %0, i32 noundef %9) #3
  %10 = add nsw i32 %2, -2
  tail call void @lua_pushvalue(ptr noundef %0, i32 noundef %10) #3
  tail call void @lua_callk(ptr noundef %0, i32 noundef 2, i32 noundef 1, i64 noundef 0, ptr noundef null) #3
  %11 = tail call i32 @lua_toboolean(ptr noundef %0, i32 noundef -1) #3
  tail call void @lua_settop(ptr noundef %0, i32 noundef -2) #3
  br label %12

12:                                               ; preds = %8, %6
  %.0 = phi i32 [ %7, %6 ], [ %11, %8 ]
  ret i32 %.0
}